target datalayout = "e-m:e-p270:32:32-p271:32:32-p272:64:64-i64:64-i128:128-f80:128-n8:16:32:64-S128"
target triple = "x86_64-pc-linux-gnu"

%struct._cmsMemPluginChunkType = type { ptr, ptr, ptr, ptr, ptr, ptr }
%struct._cmsMutexPluginChunkType = type { ptr, ptr, ptr, ptr }
%struct._cmsContext_struct = type { ptr, ptr, [16 x ptr], %struct._cmsMemPluginChunkType }

@_cmsAllocMutexPluginChunk.MutexChunk = internal global %struct._cmsMutexPluginChunkType { ptr @defMtxCreate, ptr @defMtxDestroy, ptr @defMtxLock, ptr @defMtxUnlock }, align 8

; Function Attrs: nounwind uwtable
define hidden ptr @_cmsSubAllocDup(ptr noundef %0, ptr noundef %1, i32 noundef %2) #0 {
  %4 = alloca ptr, align 8
  %5 = alloca ptr, align 8
  %6 = alloca ptr, align 8
  %7 = alloca i32, align 4
  %8 = alloca ptr, align 8
  store ptr %0, ptr %5, align 8
  store ptr %1, ptr %6, align 8
  store i32 %2, ptr %7, align 4
  %9 = load ptr, ptr %6, align 8
  %10 = icmp eq ptr %9, null
  br i1 %10, label %11, label %12

11:                                               ; preds = %3
  store ptr null, ptr %4, align 8
  br label %28

12:                                               ; preds = %3
  %13 = load ptr, ptr %5, align 8
  %14 = load i32, ptr %7, align 4
  %15 = call ptr @_cmsSubAlloc(ptr noundef %13, i32 noundef %14)
  store ptr %15, ptr %8, align 8
  %16 = load ptr, ptr %6, align 8
  %17 = icmp ne ptr %16, null
  br i1 %17, label %18, label %26

18:                                               ; preds = %12
  %19 = load ptr, ptr %8, align 8
  %20 = icmp ne ptr %19, null
  br i1 %20, label %21, label %26

21:                                               ; preds = %18
  %22 = load ptr, ptr %8, align 8
  %23 = load ptr, ptr %6, align 8
  %24 = load i32, ptr %7, align 4
  %25 = zext i32 %24 to i64
  call void @llvm.memcpy.p0.p0.i64(ptr align 1 %22, ptr align 1 %23, i64 %25, i1 false)
  br label %26

26:                                               ; preds = %21, %18, %12
  %27 = load ptr, ptr %8, align 8
  store ptr %27, ptr %4, align 8
  br label %28

28:                                               ; preds = %26, %11
  %29 = load ptr, ptr %4, align 8
  ret ptr %29
}

; Function Attrs: nounwind uwtable
define hidden void @_cmsAllocMutexPluginChunk(ptr noundef %0, ptr noundef %1) #0 {
  %3 = alloca ptr, align 8
  %4 = alloca ptr, align 8
  %5 = alloca ptr, align 8
  store ptr %0, ptr %3, align 8
  store ptr %1, ptr %4, align 8
  %6 = load ptr, ptr %4, align 8
  %7 = icmp ne ptr %6, null
  br i1 %7, label %8, label %13

8:                                                ; preds = %2
  %9 = load ptr, ptr %4, align 8
  %10 = getelementptr inbounds %struct._cmsContext_struct, ptr %9, i32 0, i32 2
  %11 = getelementptr inbounds [16 x ptr], ptr %10, i64 0, i64 14
  %12 = load ptr, ptr %11, align 8
  store ptr %12, ptr %5, align 8
  br label %14

13:                                               ; preds = %2
  store ptr @_cmsAllocMutexPluginChunk.MutexChunk, ptr %5, align 8
  br label %14

14:                                               ; preds = %13, %8
  %15 = load ptr, ptr %3, align 8
  %16 = getelementptr inbounds %struct._cmsContext_struct, ptr %15, i32 0, i32 1
  %17 = load ptr, ptr %16, align 8
  %18 = load ptr, ptr %5, align 8
  %19 = call ptr @_cmsSubAllocDup(ptr noundef %17, ptr noundef %18, i32 noundef 32)
  %20 = load ptr, ptr %3, align 8
  %21 = getelementptr inbounds %struct._cmsContext_struct, ptr %20, i32 0, i32 2
  %22 = getelementptr inbounds [16 x ptr], ptr %21, i64 0, i64 14
  store ptr %19, ptr %22, align 8
  ret void
}