; Function Attrs: nounwind uwtable
define hidden void @_cmsAllocMutexPluginChunk(ptr nocapture noundef %0, ptr noundef readonly %1) local_unnamed_addr #6 {
  %.not = icmp eq ptr %1, null
  br i1 %.not, label %.thread, label %3

3:                                                ; preds = %2
  %4 = getelementptr inbounds i8, ptr %1, i64 128
  %5 = load ptr, ptr %4, align 8
  %6 = icmp eq ptr %5, null
  br i1 %6, label %_cmsSubAllocDup.exit, label %.thread

.thread:                                          ; preds = %2, %3
  %.07 = phi ptr [ %5, %3 ], [ @_cmsAllocMutexPluginChunk.MutexChunk, %2 ]
  %.in = getelementptr inbounds i8, ptr %0, i64 8
  %7 = load ptr, ptr %.in, align 8
  %8 = tail call ptr @_cmsSubAlloc(ptr noundef %7, i32 noundef 32)
  %.not.i = icmp eq ptr %8, null
  br i1 %.not.i, label %_cmsSubAllocDup.exit, label %9

9:                                                ; preds = %.thread
  tail call void @llvm.memcpy.p0.p0.i64(ptr noundef nonnull align 1 dereferenceable(32) %8, ptr noundef nonnull readonly align 1 dereferenceable(32) %.07, i64 32, i1 false)
  br label %_cmsSubAllocDup.exit

_cmsSubAllocDup.exit:                             ; preds = %3, %.thread, %9
  %.0.i = phi ptr [ null, %3 ], [ %8, %9 ], [ null, %.thread ]
  %10 = getelementptr inbounds i8, ptr %0, i64 128
  store ptr %.0.i, ptr %10, align 8
  ret void
}